; Function Attrs: mustprogress nofree norecurse nosync nounwind willreturn memory(argmem: write) uwtable
define void @_ZN32pxrInternal_v0_24__pxrReserved__17Sdf_LayerRegistryC2Ev(ptr noundef nonnull align 8 dereferenceable(168) %0) unnamed_addr #0 align 2 {
  %2 = getelementptr inbounds nuw i8, ptr %0, i64 48
  store ptr %2, ptr %0, align 8
  %3 = getelementptr inbounds nuw i8, ptr %0, i64 8
  store i64 1, ptr %3, align 8
  %4 = getelementptr inbounds nuw i8, ptr %0, i64 16
  %5 = getelementptr inbounds nuw i8, ptr %0, i64 32
  tail call void @llvm.memset.p0.i64(ptr noundef nonnull align 8 dereferenceable(16) %4, i8 0, i64 16, i1 false)
  store float 1.000000e+00, ptr %5, align 8
  %6 = getelementptr inbounds nuw i8, ptr %0, i64 40
  tail call void @llvm.memset.p0.i64(ptr noundef nonnull align 8 dereferenceable(16) %6, i8 0, i64 16, i1 false)
  %7 = getelementptr inbounds nuw i8, ptr %0, i64 56
  %8 = getelementptr inbounds nuw i8, ptr %0, i64 104
  store ptr %8, ptr %7, align 8
  %9 = getelementptr inbounds nuw i8, ptr %0, i64 64
  store i64 1, ptr %9, align 8
  %10 = getelementptr inbounds nuw i8, ptr %0, i64 72
  %11 = getelementptr inbounds nuw i8, ptr %0, i64 88
  tail call void @llvm.memset.p0.i64(ptr noundef nonnull align 8 dereferenceable(16) %10, i8 0, i64 16, i1 false)
  store float 1.000000e+00, ptr %11, align 8
  %12 = getelementptr inbounds nuw i8, ptr %0, i64 96
  tail call void @llvm.memset.p0.i64(ptr noundef nonnull align 8 dereferenceable(16) %12, i8 0, i64 16, i1 false)
  %13 = getelementptr inbounds nuw i8, ptr %0, i64 112
  %14 = getelementptr inbounds nuw i8, ptr %0, i64 160
  store ptr %14, ptr %13, align 8
  %15 = getelementptr inbounds nuw i8, ptr %0, i64 120
  store i64 1, ptr %15, align 8
  %16 = getelementptr inbounds nuw i8, ptr %0, i64 128
  %17 = getelementptr inbounds nuw i8, ptr %0, i64 144
  tail call void @llvm.memset.p0.i64(ptr noundef nonnull align 8 dereferenceable(16) %16, i8 0, i64 16, i1 false)
  store float 1.000000e+00, ptr %17, align 8
  %18 = getelementptr inbounds nuw i8, ptr %0, i64 152
  tail call void @llvm.memset.p0.i64(ptr noundef nonnull align 8 dereferenceable(16) %18, i8 0, i64 16, i1 false)
  ret void
}